target datalayout = "e-m:e-p270:32:32-p271:32:32-p272:64:64-i64:64-i128:128-f80:128-n8:16:32:64-S128"
target triple = "x86_64-pc-linux-gnu"

%struct.FormData_pg_attribute = type { i32, %struct.nameData, i32, i16, i16, i32, i16, i8, i8, i8, i8, i8, i8, i8, i8, i8, i8, i8, i16, i32 }
%struct.nameData = type { [64 x i8] }
%struct.RelationData = type { %struct.RelFileLocator, ptr, i32, i32, i8, i8, i8, i8, i8, i32, i32, i32, i32, ptr, ptr, i32, %struct.LockInfoData, ptr, ptr, ptr, ptr, ptr, i8, ptr, ptr, ptr, ptr, ptr, ptr, i32, ptr, i8, ptr, ptr, i32, i8, i32, ptr, i8, ptr, ptr, ptr, ptr, ptr, ptr, ptr, i32, ptr, ptr, ptr, ptr, ptr, ptr, ptr, ptr, ptr, ptr, ptr, ptr, ptr, ptr, ptr, ptr, ptr, ptr, ptr, i32, i8, ptr }
%struct.RelFileLocator = type { i32, i32, i32 }
%struct.LockInfoData = type { %struct.LockRelId }
%struct.LockRelId = type { i32, i32 }
%struct.TupleDescData = type { i32, i32, i32, i32, ptr, [0 x %struct.CompactAttribute] }
%struct.CompactAttribute = type { i32, i16, i8, i8, i8, i8, i8, i8, i8 }

@.str.1 = private unnamed_addr constant [17 x i8] c"parse_relation.c\00", align 1
@.str.50 = private unnamed_addr constant [28 x i8] c"invalid attribute number %d\00", align 1
@__func__.attnumAttName = private unnamed_addr constant [14 x i8] c"attnumAttName\00", align 1

; Function Attrs: inlinehint nounwind uwtable
define internal ptr @TupleDescAttr(ptr noundef %0, i32 noundef %1) #6 {
  %3 = alloca ptr, align 8
  %4 = alloca i32, align 4
  %5 = alloca ptr, align 8
  store ptr %0, ptr %3, align 8
  store i32 %1, ptr %4, align 4
  call void @llvm.lifetime.start.p0(i64 8, ptr %5) #8
  %6 = load ptr, ptr %3, align 8
  %7 = load ptr, ptr %3, align 8
  %8 = getelementptr inbounds nuw %struct.TupleDescData, ptr %7, i32 0, i32 0
  %9 = load i32, ptr %8, align 8
  %10 = sext i32 %9 to i64
  %11 = mul i64 %10, 16
  %12 = add i64 24, %11
  %13 = getelementptr inbounds nuw i8, ptr %6, i64 %12
  store ptr %13, ptr %5, align 8
  %14 = load ptr, ptr %5, align 8
  %15 = load i32, ptr %4, align 4
  %16 = sext i32 %15 to i64
  %17 = getelementptr inbounds %struct.FormData_pg_attribute, ptr %14, i64 %16
  call void @llvm.lifetime.end.p0(i64 8, ptr %5) #8
  ret ptr %17
}

; Function Attrs: nounwind uwtable
define dso_local ptr @attnumAttName(ptr noundef %0, i32 noundef %1) #0 {
  %3 = alloca ptr, align 8
  %4 = alloca ptr, align 8
  %5 = alloca i32, align 4
  %6 = alloca ptr, align 8
  store ptr %0, ptr %4, align 8
  store i32 %1, ptr %5, align 4
  %7 = load i32, ptr %5, align 4
  %8 = icmp sle i32 %7, 0
  br i1 %8, label %9, label %15

9:                                                ; preds = %2
  call void @llvm.lifetime.start.p0(i64 8, ptr %6) #8
  %10 = load i32, ptr %5, align 4
  %11 = trunc i32 %10 to i16
  %12 = call ptr @SystemAttributeDefinition(i16 noundef signext %11)
  store ptr %12, ptr %6, align 8
  %13 = load ptr, ptr %6, align 8
  %14 = getelementptr inbounds nuw %struct.FormData_pg_attribute, ptr %13, i32 0, i32 1
  store ptr %14, ptr %3, align 8
  call void @llvm.lifetime.end.p0(i64 8, ptr %6) #8
  br label %42

15:                                               ; preds = %2
  %16 = load i32, ptr %5, align 4
  %17 = load ptr, ptr %4, align 8
  %18 = getelementptr inbounds nuw %struct.RelationData, ptr %17, i32 0, i32 14
  %19 = load ptr, ptr %18, align 8
  %20 = getelementptr inbounds nuw %struct.TupleDescData, ptr %19, i32 0, i32 0
  %21 = load i32, ptr %20, align 8
  %22 = icmp sgt i32 %16, %21
  br i1 %22, label %23, label %34

23:                                               ; preds = %15
  br label %24

24:                                               ; preds = %23
  br i1 true, label %25, label %27

25:                                               ; preds = %24
  %26 = call zeroext i1 @errstart_cold(i32 noundef 21, ptr noundef null) #9
  br i1 %26, label %29, label %32

27:                                               ; preds = %24
  %28 = call zeroext i1 @errstart(i32 noundef 21, ptr noundef null)
  br i1 %28, label %29, label %32

29:                                               ; preds = %27, %25
  %30 = load i32, ptr %5, align 4
  %31 = call i32 (ptr, ...) @errmsg_internal(ptr noundef @.str.50, i32 noundef %30)
  call void @errfinish(ptr noundef @.str.1, i32 noundef 3649, ptr noundef @__func__.attnumAttName)
  br label %32

32:                                               ; preds = %29, %27, %25
  unreachable

33:                                               ; No predecessors!
  br label %34

34:                                               ; preds = %33, %15
  %35 = load ptr, ptr %4, align 8
  %36 = getelementptr inbounds nuw %struct.RelationData, ptr %35, i32 0, i32 14
  %37 = load ptr, ptr %36, align 8
  %38 = load i32, ptr %5, align 4
  %39 = sub i32 %38, 1
  %40 = call ptr @TupleDescAttr(ptr noundef %37, i32 noundef %39)
  %41 = getelementptr inbounds nuw %struct.FormData_pg_attribute, ptr %40, i32 0, i32 1
  store ptr %41, ptr %3, align 8
  br label %42

42:                                               ; preds = %34, %9
  %43 = load ptr, ptr %3, align 8
  ret ptr %43
}